target datalayout = "e-m:e-p270:32:32-p271:32:32-p272:64:64-i64:64-i128:128-f80:128-n8:16:32:64-S128"
target triple = "x86_64-pc-linux-gnu"

%struct.derive_from_pq_test = type { i32, i32, i32 }

@.str.11 = private unnamed_addr constant [37 x i8] c"../openssl/test/rsa_sp800_56b_test.c\00", align 1
@.str.12 = private unnamed_addr constant [13 x i8] c"e = BN_new()\00", align 1
@.str.21 = private unnamed_addr constant [13 x i8] c"p = BN_new()\00", align 1
@.str.26 = private unnamed_addr constant [19 x i8] c"ctx = BN_CTX_new()\00", align 1
@.str.43 = private unnamed_addr constant [16 x i8] c"key = RSA_new()\00", align 1
@.str.44 = private unnamed_addr constant [13 x i8] c"q = BN_new()\00", align 1
@.str.47 = private unnamed_addr constant [28 x i8] c"RSA_set0_factors(key, p, q)\00", align 1
@.str.62 = private unnamed_addr constant [57 x i8] c"ossl_rsa_sp800_56b_derive_params_from_pq(key, 8, e, ctx)\00", align 1
@.str.85 = private unnamed_addr constant [44 x i8] c"BN_set_word(p, derive_from_pq_tests[tst].p)\00", align 1
@derive_from_pq_tests = internal constant [2 x %struct.derive_from_pq_test] [%struct.derive_from_pq_test { i32 15, i32 17, i32 6 }, %struct.derive_from_pq_test { i32 0, i32 17, i32 5 }], align 16
@.str.86 = private unnamed_addr constant [44 x i8] c"BN_set_word(q, derive_from_pq_tests[tst].q)\00", align 1
@.str.87 = private unnamed_addr constant [44 x i8] c"BN_set_word(e, derive_from_pq_tests[tst].e)\00", align 1
@.str.88 = private unnamed_addr constant [2 x i8] c"0\00", align 1

; Function Attrs: nounwind uwtable
define internal i32 @test_derive_params_from_pq_fail(i32 noundef %0) #0 {
  %2 = alloca i32, align 4
  %3 = alloca i32, align 4
  %4 = alloca ptr, align 8
  %5 = alloca ptr, align 8
  %6 = alloca ptr, align 8
  %7 = alloca ptr, align 8
  %8 = alloca ptr, align 8
  store i32 %0, ptr %2, align 4, !tbaa !4
  call void @llvm.lifetime.start.p0(i64 4, ptr %3) #3
  store i32 0, ptr %3, align 4, !tbaa !4
  call void @llvm.lifetime.start.p0(i64 8, ptr %4) #3
  store ptr null, ptr %4, align 8, !tbaa !13
  call void @llvm.lifetime.start.p0(i64 8, ptr %5) #3
  store ptr null, ptr %5, align 8, !tbaa !11
  call void @llvm.lifetime.start.p0(i64 8, ptr %6) #3
  store ptr null, ptr %6, align 8, !tbaa !8
  call void @llvm.lifetime.start.p0(i64 8, ptr %7) #3
  store ptr null, ptr %7, align 8, !tbaa !8
  call void @llvm.lifetime.start.p0(i64 8, ptr %8) #3
  store ptr null, ptr %8, align 8, !tbaa !8
  %9 = call ptr @RSA_new()
  store ptr %9, ptr %4, align 8, !tbaa !13
  %10 = call i32 @test_ptr(ptr noundef @.str.11, i32 noundef 363, ptr noundef @.str.43, ptr noundef %9)
  %11 = icmp ne i32 %10, 0
  br i1 %11, label %12, label %76

12:                                               ; preds = %1
  %13 = call ptr @BN_CTX_new()
  store ptr %13, ptr %5, align 8, !tbaa !11
  %14 = call i32 @test_ptr(ptr noundef @.str.11, i32 noundef 364, ptr noundef @.str.26, ptr noundef %13)
  %15 = icmp ne i32 %14, 0
  br i1 %15, label %16, label %76

16:                                               ; preds = %12
  %17 = call ptr @BN_new()
  store ptr %17, ptr %6, align 8, !tbaa !8
  %18 = call i32 @test_ptr(ptr noundef @.str.11, i32 noundef 365, ptr noundef @.str.21, ptr noundef %17)
  %19 = icmp ne i32 %18, 0
  br i1 %19, label %20, label %76

20:                                               ; preds = %16
  %21 = call ptr @BN_new()
  store ptr %21, ptr %7, align 8, !tbaa !8
  %22 = call i32 @test_ptr(ptr noundef @.str.11, i32 noundef 366, ptr noundef @.str.44, ptr noundef %21)
  %23 = icmp ne i32 %22, 0
  br i1 %23, label %24, label %76

24:                                               ; preds = %20
  %25 = call ptr @BN_new()
  store ptr %25, ptr %8, align 8, !tbaa !8
  %26 = call i32 @test_ptr(ptr noundef @.str.11, i32 noundef 367, ptr noundef @.str.12, ptr noundef %25)
  %27 = icmp ne i32 %26, 0
  br i1 %27, label %28, label %76

28:                                               ; preds = %24
  %29 = load ptr, ptr %6, align 8, !tbaa !8
  %30 = load i32, ptr %2, align 4, !tbaa !4
  %31 = sext i32 %30 to i64
  %32 = getelementptr inbounds [2 x %struct.derive_from_pq_test], ptr @derive_from_pq_tests, i64 0, i64 %31
  %33 = getelementptr inbounds nuw %struct.derive_from_pq_test, ptr %32, i32 0, i32 0
  %34 = load i32, ptr %33, align 4, !tbaa !32
  %35 = sext i32 %34 to i64
  %36 = call i32 @BN_set_word(ptr noundef %29, i64 noundef %35)
  %37 = icmp ne i32 %36, 0
  %38 = zext i1 %37 to i32
  %39 = call i32 @test_true(ptr noundef @.str.11, i32 noundef 368, ptr noundef @.str.85, i32 noundef %38)
  %40 = icmp ne i32 %39, 0
  br i1 %40, label %41, label %76

41:                                               ; preds = %28
  %42 = load ptr, ptr %7, align 8, !tbaa !8
  %43 = load i32, ptr %2, align 4, !tbaa !4
  %44 = sext i32 %43 to i64
  %45 = getelementptr inbounds [2 x %struct.derive_from_pq_test], ptr @derive_from_pq_tests, i64 0, i64 %44
  %46 = getelementptr inbounds nuw %struct.derive_from_pq_test, ptr %45, i32 0, i32 1
  %47 = load i32, ptr %46, align 4, !tbaa !34
  %48 = sext i32 %47 to i64
  %49 = call i32 @BN_set_word(ptr noundef %42, i64 noundef %48)
  %50 = icmp ne i32 %49, 0
  %51 = zext i1 %50 to i32
  %52 = call i32 @test_true(ptr noundef @.str.11, i32 noundef 369, ptr noundef @.str.86, i32 noundef %51)
  %53 = icmp ne i32 %52, 0
  br i1 %53, label %54, label %76

54:                                               ; preds = %41
  %55 = load ptr, ptr %8, align 8, !tbaa !8
  %56 = load i32, ptr %2, align 4, !tbaa !4
  %57 = sext i32 %56 to i64
  %58 = getelementptr inbounds [2 x %struct.derive_from_pq_test], ptr @derive_from_pq_tests, i64 0, i64 %57
  %59 = getelementptr inbounds nuw %struct.derive_from_pq_test, ptr %58, i32 0, i32 2
  %60 = load i32, ptr %59, align 4, !tbaa !35
  %61 = sext i32 %60 to i64
  %62 = call i32 @BN_set_word(ptr noundef %55, i64 noundef %61)
  %63 = icmp ne i32 %62, 0
  %64 = zext i1 %63 to i32
  %65 = call i32 @test_true(ptr noundef @.str.11, i32 noundef 370, ptr noundef @.str.87, i32 noundef %64)
  %66 = icmp ne i32 %65, 0
  br i1 %66, label %67, label %76

67:                                               ; preds = %54
  %68 = load ptr, ptr %4, align 8, !tbaa !13
  %69 = load ptr, ptr %6, align 8, !tbaa !8
  %70 = load ptr, ptr %7, align 8, !tbaa !8
  %71 = call i32 @RSA_set0_factors(ptr noundef %68, ptr noundef %69, ptr noundef %70)
  %72 = icmp ne i32 %71, 0
  %73 = zext i1 %72 to i32
  %74 = call i32 @test_true(ptr noundef @.str.11, i32 noundef 371, ptr noundef @.str.47, i32 noundef %73)
  %75 = icmp ne i32 %74, 0
  br label %76

76:                                               ; preds = %67, %54, %41, %28, %24, %20, %16, %12, %1
  %77 = phi i1 [ false, %54 ], [ false, %41 ], [ false, %28 ], [ false, %24 ], [ false, %20 ], [ false, %16 ], [ false, %12 ], [ false, %1 ], [ %75, %67 ]
  %78 = zext i1 %77 to i32
  store i32 %78, ptr %3, align 4, !tbaa !4
  %79 = load i32, ptr %3, align 4, !tbaa !4
  %80 = icmp ne i32 %79, 0
  br i1 %80, label %84, label %81

81:                                               ; preds = %76
  %82 = load ptr, ptr %6, align 8, !tbaa !8
  call void @BN_free(ptr noundef %82)
  %83 = load ptr, ptr %7, align 8, !tbaa !8
  call void @BN_free(ptr noundef %83)
  br label %90

84:                                               ; preds = %76
  %85 = load ptr, ptr %4, align 8, !tbaa !13
  %86 = load ptr, ptr %8, align 8, !tbaa !8
  %87 = load ptr, ptr %5, align 8, !tbaa !11
  %88 = call i32 @ossl_rsa_sp800_56b_derive_params_from_pq(ptr noundef %85, i32 noundef 8, ptr noundef %86, ptr noundef %87)
  %89 = call i32 @test_int_le(ptr noundef @.str.11, i32 noundef 378, ptr noundef @.str.62, ptr noundef @.str.88, i32 noundef %88, i32 noundef 0)
  store i32 %89, ptr %3, align 4, !tbaa !4
  br label %90

90:                                               ; preds = %84, %81
  %91 = load ptr, ptr %8, align 8, !tbaa !8
  call void @BN_free(ptr noundef %91)
  %92 = load ptr, ptr %4, align 8, !tbaa !13
  call void @RSA_free(ptr noundef %92)
  %93 = load ptr, ptr %5, align 8, !tbaa !11
  call void @BN_CTX_free(ptr noundef %93)
  %94 = load i32, ptr %3, align 4, !tbaa !4
  call void @llvm.lifetime.end.p0(i64 8, ptr %8) #3
  call void @llvm.lifetime.end.p0(i64 8, ptr %7) #3
  call void @llvm.lifetime.end.p0(i64 8, ptr %6) #3
  call void @llvm.lifetime.end.p0(i64 8, ptr %5) #3
  call void @llvm.lifetime.end.p0(i64 8, ptr %4) #3
  call void @llvm.lifetime.end.p0(i64 4, ptr %3) #3
  ret i32 %94
}