; Function Attrs: nounwind uwtable
define internal i32 @test_derive_params_from_pq_fail(i32 noundef %0) #0 {
  %2 = tail call ptr @RSA_new() #2
  %3 = tail call i32 @test_ptr(ptr noundef nonnull @.str.11, i32 noundef 363, ptr noundef nonnull @.str.43, ptr noundef %2) #2
  %.not = icmp eq i32 %3, 0
  br i1 %.not, label %.thread, label %4

4:                                                ; preds = %1
  %5 = tail call ptr @BN_CTX_new() #2
  %6 = tail call i32 @test_ptr(ptr noundef nonnull @.str.11, i32 noundef 364, ptr noundef nonnull @.str.26, ptr noundef %5) #2
  %.not22 = icmp eq i32 %6, 0
  br i1 %.not22, label %.thread, label %7

7:                                                ; preds = %4
  %8 = tail call ptr @BN_new() #2
  %9 = tail call i32 @test_ptr(ptr noundef nonnull @.str.11, i32 noundef 365, ptr noundef nonnull @.str.21, ptr noundef %8) #2
  %.not23 = icmp eq i32 %9, 0
  br i1 %.not23, label %.thread, label %10

10:                                               ; preds = %7
  %11 = tail call ptr @BN_new() #2
  %12 = tail call i32 @test_ptr(ptr noundef nonnull @.str.11, i32 noundef 366, ptr noundef nonnull @.str.44, ptr noundef %11) #2
  %.not24 = icmp eq i32 %12, 0
  br i1 %.not24, label %.thread, label %13

13:                                               ; preds = %10
  %14 = tail call ptr @BN_new() #2
  %15 = tail call i32 @test_ptr(ptr noundef nonnull @.str.11, i32 noundef 367, ptr noundef nonnull @.str.12, ptr noundef %14) #2
  %.not25 = icmp eq i32 %15, 0
  br i1 %.not25, label %.thread, label %16

16:                                               ; preds = %13
  %17 = sext i32 %0 to i64
  %18 = getelementptr inbounds [2 x %struct.derive_from_pq_test], ptr @derive_from_pq_tests, i64 0, i64 %17
  %19 = load i32, ptr %18, align 4, !tbaa !26
  %20 = sext i32 %19 to i64
  %21 = tail call i32 @BN_set_word(ptr noundef %8, i64 noundef %20) #2
  %22 = icmp ne i32 %21, 0
  %23 = zext i1 %22 to i32
  %24 = tail call i32 @test_true(ptr noundef nonnull @.str.11, i32 noundef 368, ptr noundef nonnull @.str.85, i32 noundef %23) #2
  %.not26 = icmp eq i32 %24, 0
  br i1 %.not26, label %.thread, label %25

25:                                               ; preds = %16
  %26 = tail call i32 @BN_set_word(ptr noundef %11, i64 noundef 17) #2
  %27 = icmp ne i32 %26, 0
  %28 = zext i1 %27 to i32
  %29 = tail call i32 @test_true(ptr noundef nonnull @.str.11, i32 noundef 369, ptr noundef nonnull @.str.86, i32 noundef %28) #2
  %.not27 = icmp eq i32 %29, 0
  br i1 %.not27, label %.thread, label %30

30:                                               ; preds = %25
  %31 = getelementptr inbounds nuw i8, ptr %18, i64 8
  %32 = load i32, ptr %31, align 4, !tbaa !28
  %33 = sext i32 %32 to i64
  %34 = tail call i32 @BN_set_word(ptr noundef %14, i64 noundef %33) #2
  %35 = icmp ne i32 %34, 0
  %36 = zext i1 %35 to i32
  %37 = tail call i32 @test_true(ptr noundef nonnull @.str.11, i32 noundef 370, ptr noundef nonnull @.str.87, i32 noundef %36) #2
  %.not28 = icmp eq i32 %37, 0
  br i1 %.not28, label %.thread, label %38

38:                                               ; preds = %30
  %39 = tail call i32 @RSA_set0_factors(ptr noundef %2, ptr noundef %8, ptr noundef %11) #2
  %40 = icmp ne i32 %39, 0
  %41 = zext i1 %40 to i32
  %42 = tail call i32 @test_true(ptr noundef nonnull @.str.11, i32 noundef 371, ptr noundef nonnull @.str.47, i32 noundef %41) #2
  %.not39 = icmp eq i32 %42, 0
  br i1 %.not39, label %.thread, label %43

.thread:                                          ; preds = %1, %4, %7, %10, %13, %16, %25, %30, %38
  %.038 = phi ptr [ %14, %38 ], [ null, %1 ], [ null, %4 ], [ null, %7 ], [ null, %10 ], [ %14, %13 ], [ %14, %16 ], [ %14, %25 ], [ %14, %30 ]
  %.01836 = phi ptr [ %11, %38 ], [ null, %1 ], [ null, %4 ], [ null, %7 ], [ %11, %10 ], [ %11, %13 ], [ %11, %16 ], [ %11, %25 ], [ %11, %30 ]
  %.01935 = phi ptr [ %8, %38 ], [ null, %1 ], [ null, %4 ], [ %8, %7 ], [ %8, %10 ], [ %8, %13 ], [ %8, %16 ], [ %8, %25 ], [ %8, %30 ]
  %.02034 = phi ptr [ %5, %38 ], [ null, %1 ], [ %5, %4 ], [ %5, %7 ], [ %5, %10 ], [ %5, %13 ], [ %5, %16 ], [ %5, %25 ], [ %5, %30 ]
  tail call void @BN_free(ptr noundef %.01935) #2
  tail call void @BN_free(ptr noundef %.01836) #2
  br label %46

43:                                               ; preds = %38
  %44 = tail call i32 @ossl_rsa_sp800_56b_derive_params_from_pq(ptr noundef %2, i32 noundef 8, ptr noundef %14, ptr noundef %5) #2
  %45 = tail call i32 @test_int_le(ptr noundef nonnull @.str.11, i32 noundef 378, ptr noundef nonnull @.str.62, ptr noundef nonnull @.str.88, i32 noundef %44, i32 noundef 0) #2
  br label %46

46:                                               ; preds = %43, %.thread
  %.037 = phi ptr [ %14, %43 ], [ %.038, %.thread ]
  %.02033 = phi ptr [ %5, %43 ], [ %.02034, %.thread ]
  %.021 = phi i32 [ %45, %43 ], [ 0, %.thread ]
  tail call void @BN_free(ptr noundef %.037) #2
  tail call void @RSA_free(ptr noundef %2) #2
  tail call void @BN_CTX_free(ptr noundef %.02033) #2
  ret i32 %.021
}